	.file	"main-signal.c"
	.text
	.globl	done
	.bss
	.align 4
	.type	done, @object
	.size	done, 4
done:
	.zero	4
	.section	.rodata
.LC0:
	.string	"this should print first"
	.text
	.globl	worker
	.type	worker, @function
worker:
.LFB6:
	.cfi_startproc
	endbr64
	pushq	%rbp
	.cfi_def_cfa_offset 16
	.cfi_offset 6, -16
	movq	%rsp, %rbp
	.cfi_def_cfa_register 6
	subq	$16, %rsp
	movq	%rdi, -8(%rbp)
	leaq	.LC0(%rip), %rax
	movq	%rax, %rdi
	call	puts@PLT
	movl	$1, done(%rip)
	movl	$0, %eax
	leave
	.cfi_def_cfa 7, 8
	ret
	.cfi_endproc
.LFE6:
	.size	worker, .-worker
	.section	.rodata
.LC1:
	.string	"main-signal.c"
	.align 8
.LC2:
	.string	"pthread_create(&p, ((void *)0), worker, ((void *)0)) == 0"
.LC3:
	.string	"this should print last"
	.text
	.globl	main
	.type	main, @function
main:
.LFB7:
	.cfi_startproc
	endbr64
	pushq	%rbp
	.cfi_def_cfa_offset 16
	.cfi_offset 6, -16
	movq	%rsp, %rbp
	.cfi_def_cfa_register 6
	subq	$32, %rsp
	movl	%edi, -20(%rbp)
	movq	%rsi, -32(%rbp)
	movq	%fs:40, %rax
	movq	%rax, -8(%rbp)
	xorl	%eax, %eax
	leaq	-16(%rbp), %rax
	movl	$0, %ecx
	leaq	worker(%rip), %rdx
	movl	$0, %esi
	movq	%rax, %rdi
	call	pthread_create@PLT
	testl	%eax, %eax
	je	.L8
	leaq	__PRETTY_FUNCTION__.0(%rip), %rax
	movq	%rax, %rcx
	movl	$15, %edx
	leaq	.LC1(%rip), %rax
	movq	%rax, %rsi
	leaq	.LC2(%rip), %rax
	movq	%rax, %rdi
	call	__assert_fail@PLT
.L8:
	nop
.L5:
	movl	done(%rip), %eax
	testl	%eax, %eax
	je	.L5
	leaq	.LC3(%rip), %rax
	movq	%rax, %rdi
	call	puts@PLT
	movl	$0, %eax
	movq	-8(%rbp), %rdx
	subq	%fs:40, %rdx
	je	.L7
	call	__stack_chk_fail@PLT
.L7:
	leave
	.cfi_def_cfa 7, 8
	ret
	.cfi_endproc
.LFE7:
	.size	main, .-main
	.section	.rodata
	.type	__PRETTY_FUNCTION__.0, @object
	.size	__PRETTY_FUNCTION__.0, 5
__PRETTY_FUNCTION__.0:
	.string	"main"
	.ident	"GCC: (Ubuntu 13.2.0-23ubuntu4) 13.2.0"
	.section	.note.GNU-stack,"",@progbits
	.section	.note.gnu.property,"a"
	.align 8
	.long	1f - 0f
	.long	4f - 1f
	.long	5
0:
	.string	"GNU"
1:
	.align 8
	.long	0xc0000002
	.long	3f - 2f
2:
	.long	0x3
3:
	.align 8
4:
